; Function Attrs: mustprogress nounwind uwtable
define hidden void @_ZN11StringTable15gc_notificationEm(i64 noundef %0) #0 align 2 {
  %2 = load volatile ptr, ptr getelementptr inbounds (i8, ptr @_ZN16LogTagSetMappingILN6LogTag4typeE149ELS1_0ELS1_0ELS1_0ELS1_0ELS1_0EE7_tagsetE, i64 48), align 8
  %.not = icmp eq ptr %2, null
  br i1 %.not, label %4, label %3

3:                                                ; preds = %1
  tail call void (ptr, ...) @_ZN7LogImplILN6LogTag4typeE149ELS1_0ELS1_0ELS1_0ELS1_0ELS1_0EE5writeILN8LogLevel4typeE1EEEvPKcz(ptr noundef nonnull @.str.13, i64 noundef %0)
  br label %4

4:                                                ; preds = %1, %3
  %5 = load volatile i8, ptr @_ZN11StringTable9_has_workE, align 1
  %6 = trunc i8 %5 to i1
  tail call void asm sideeffect "", "~{memory},~{dirflag},~{fpsr},~{flags}"() #17, !srcloc !9
  br i1 %6, label %_ZN11StringTable23trigger_concurrent_workEv.exit, label %7

7:                                                ; preds = %4
  %8 = load volatile i64, ptr @_ZL12_items_count, align 8
  %9 = load i64, ptr @_ZL13_current_size, align 8
  %10 = uitofp i64 %9 to double
  %11 = insertelement <2 x i64> poison, i64 %0, i64 0
  %12 = insertelement <2 x i64> %11, i64 %8, i64 1
  %13 = uitofp <2 x i64> %12 to <2 x double>
  %14 = insertelement <2 x double> poison, double %10, i64 0
  %15 = shufflevector <2 x double> %14, <2 x double> poison, <2 x i32> zeroinitializer
  %16 = fdiv <2 x double> %13, %15
  %17 = shufflevector <2 x double> %16, <2 x double> <double poison, double 2.000000e+00>, <2 x i32> <i32 1, i32 3>
  %18 = fcmp ogt <2 x double> %16, %17
  %shift = shufflevector <2 x i1> %18, <2 x i1> poison, <2 x i32> <i32 1, i32 poison>
  %19 = or <2 x i1> %18, %shift
  %or.cond = extractelement <2 x i1> %19, i64 0
  %20 = extractelement <2 x double> %16, i64 0
  %21 = fcmp ogt double %20, 5.000000e-01
  %or.cond3 = or i1 %21, %or.cond
  br i1 %or.cond3, label %22, label %_ZN11StringTable23trigger_concurrent_workEv.exit

22:                                               ; preds = %7
  %23 = load volatile ptr, ptr getelementptr inbounds (i8, ptr @_ZN16LogTagSetMappingILN6LogTag4typeE149ELS1_0ELS1_0ELS1_0ELS1_0ELS1_0EE7_tagsetE, i64 56), align 8
  %.not10 = icmp eq ptr %23, null
  br i1 %.not10, label %26, label %24

24:                                               ; preds = %22
  %25 = extractelement <2 x double> %16, i64 1
  tail call void (ptr, ...) @_ZN7LogImplILN6LogTag4typeE149ELS1_0ELS1_0ELS1_0ELS1_0ELS1_0EE5writeILN8LogLevel4typeE2EEEvPKcz(ptr noundef nonnull @.str.14, double noundef %25, double noundef %20)
  br label %26

26:                                               ; preds = %22, %24
  %27 = load volatile i8, ptr @_ZN11StringTable9_has_workE, align 1
  %28 = trunc i8 %27 to i1
  tail call void asm sideeffect "", "~{memory},~{dirflag},~{fpsr},~{flags}"() #17, !srcloc !9
  br i1 %28, label %_ZN11StringTable23trigger_concurrent_workEv.exit, label %29

29:                                               ; preds = %26
  %30 = load ptr, ptr @Service_lock, align 8
  %.not.i.i.i = icmp eq ptr %30, null
  br i1 %.not.i.i.i, label %_ZN11MutexLockerC2EP5MutexNS0_18SafepointCheckFlagE.exit.thread.i, label %31

_ZN11MutexLockerC2EP5MutexNS0_18SafepointCheckFlagE.exit.thread.i: ; preds = %29
  store volatile i8 1, ptr @_ZN11StringTable9_has_workE, align 1
  tail call void @_ZN7Monitor10notify_allEv(ptr noundef nonnull align 8 dereferenceable(104) null) #17
  br label %_ZN11StringTable23trigger_concurrent_workEv.exit

31:                                               ; preds = %29
  tail call void @_ZN5Mutex28lock_without_safepoint_checkEv(ptr noundef nonnull align 8 dereferenceable(104) %30) #17
  store volatile i8 1, ptr @_ZN11StringTable9_has_workE, align 1
  %32 = load ptr, ptr @Service_lock, align 8
  tail call void @_ZN7Monitor10notify_allEv(ptr noundef nonnull align 8 dereferenceable(104) %32) #17
  tail call void @_ZN5Mutex6unlockEv(ptr noundef nonnull align 8 dereferenceable(104) %30) #17
  br label %_ZN11StringTable23trigger_concurrent_workEv.exit

_ZN11StringTable23trigger_concurrent_workEv.exit: ; preds = %31, %_ZN11MutexLockerC2EP5MutexNS0_18SafepointCheckFlagE.exit.thread.i, %26, %7, %4
  ret void
}